target datalayout = "e-m:e-p270:32:32-p271:32:32-p272:64:64-i64:64-i128:128-f80:128-n8:16:32:64-S128"
target triple = "x86_64-pc-linux-gnu"

%"class.open3d::geometry::TetraMesh" = type { %"class.open3d::geometry::MeshBase", %"class.std::vector.16" }
%"class.open3d::geometry::MeshBase" = type { %"class.open3d::geometry::Geometry3D", %"class.std::vector", %"class.std::vector", %"class.std::vector" }
%"class.open3d::geometry::Geometry3D" = type { %"class.open3d::geometry::Geometry" }
%"class.open3d::geometry::Geometry" = type { ptr, i32, i32, %"class.std::__cxx11::basic_string" }
%"class.std::__cxx11::basic_string" = type { %"struct.std::__cxx11::basic_string<char>::_Alloc_hider", i64, %union.anon }
%"struct.std::__cxx11::basic_string<char>::_Alloc_hider" = type { ptr }
%union.anon = type { i64, [8 x i8] }
%"class.std::vector" = type { %"struct.std::_Vector_base" }
%"struct.std::_Vector_base" = type { %"struct.std::_Vector_base<Eigen::Matrix<double, 3, 1>, std::allocator<Eigen::Matrix<double, 3, 1>>>::_Vector_impl" }
%"struct.std::_Vector_base<Eigen::Matrix<double, 3, 1>, std::allocator<Eigen::Matrix<double, 3, 1>>>::_Vector_impl" = type { %"struct.std::_Vector_base<Eigen::Matrix<double, 3, 1>, std::allocator<Eigen::Matrix<double, 3, 1>>>::_Vector_impl_data" }
%"struct.std::_Vector_base<Eigen::Matrix<double, 3, 1>, std::allocator<Eigen::Matrix<double, 3, 1>>>::_Vector_impl_data" = type { ptr, ptr, ptr }
%"class.std::vector.16" = type { %"struct.std::_Vector_base.17" }
%"struct.std::_Vector_base.17" = type { %"struct.std::_Vector_base<Eigen::Matrix<int, 4, 1>, Eigen::aligned_allocator<Eigen::Matrix<int, 4, 1>>>::_Vector_impl" }
%"struct.std::_Vector_base<Eigen::Matrix<int, 4, 1>, Eigen::aligned_allocator<Eigen::Matrix<int, 4, 1>>>::_Vector_impl" = type { %"struct.std::_Vector_base<Eigen::Matrix<int, 4, 1>, Eigen::aligned_allocator<Eigen::Matrix<int, 4, 1>>>::_Vector_impl_data" }
%"struct.std::_Vector_base<Eigen::Matrix<int, 4, 1>, Eigen::aligned_allocator<Eigen::Matrix<int, 4, 1>>>::_Vector_impl_data" = type { ptr, ptr, ptr }

; Function Attrs: inlinehint mustprogress ssp uwtable
define linkonce_odr void @_ZN6open3d8geometry9TetraMeshC2ERKS1_(ptr noundef nonnull align 8 dereferenceable(144) %0, ptr noundef nonnull align 8 dereferenceable(144) %1) unnamed_addr #7 comdat align 2 personality ptr @__gxx_personality_v0 {
  %3 = alloca ptr, align 8
  %4 = alloca ptr, align 8
  %5 = alloca ptr, align 8
  %6 = alloca i32, align 4
  store ptr %0, ptr %3, align 8, !tbaa !4
  store ptr %1, ptr %4, align 8, !tbaa !4
  %7 = load ptr, ptr %3, align 8
  %8 = load ptr, ptr %4, align 8, !tbaa !4
  call void @_ZN6open3d8geometry8MeshBaseC2ERKS1_(ptr noundef nonnull align 8 dereferenceable(120) %7, ptr noundef nonnull align 8 dereferenceable(120) %8)
  store ptr getelementptr inbounds inrange(-16, 120) ({ [17 x ptr] }, ptr @_ZTVN6open3d8geometry9TetraMeshE, i32 0, i32 0, i32 2), ptr %7, align 8, !tbaa !9
  %9 = getelementptr inbounds nuw %"class.open3d::geometry::TetraMesh", ptr %7, i32 0, i32 1
  %10 = load ptr, ptr %4, align 8, !tbaa !4
  %11 = getelementptr inbounds nuw %"class.open3d::geometry::TetraMesh", ptr %10, i32 0, i32 1
  invoke void @_ZNSt6vectorIN5Eigen6MatrixIiLi4ELi1ELi0ELi4ELi1EEENS0_17aligned_allocatorIS2_EEEC2ERKS5_(ptr noundef nonnull align 8 dereferenceable(24) %9, ptr noundef nonnull align 8 dereferenceable(24) %11)
          to label %12 unwind label %13

12:                                               ; preds = %2
  ret void

13:                                               ; preds = %2
  %14 = landingpad { ptr, i32 }
          cleanup
  %15 = extractvalue { ptr, i32 } %14, 0
  store ptr %15, ptr %5, align 8
  %16 = extractvalue { ptr, i32 } %14, 1
  store i32 %16, ptr %6, align 4
  call void @_ZN6open3d8geometry8MeshBaseD2Ev(ptr noundef nonnull align 8 dereferenceable(120) %7) #34
  br label %17

17:                                               ; preds = %13
  %18 = load ptr, ptr %5, align 8
  %19 = load i32, ptr %6, align 4
  %20 = insertvalue { ptr, i32 } poison, ptr %18, 0
  %21 = insertvalue { ptr, i32 } %20, i32 %19, 1
  resume { ptr, i32 } %21
}

; Function Attrs: mustprogress ssp uwtable
define void @_ZNK6open3d8geometry9TetraMeshplERKS1_(ptr dead_on_unwind noalias writable sret(%"class.open3d::geometry::TetraMesh") align 8 %0, ptr noundef nonnull align 8 dereferenceable(144) %1, ptr noundef nonnull align 8 dereferenceable(144) %2) #1 align 2 personality ptr @__gxx_personality_v0 {
  %4 = alloca ptr, align 8
  %5 = alloca ptr, align 8
  %6 = alloca ptr, align 8
  %7 = alloca %"class.open3d::geometry::TetraMesh", align 8
  %8 = alloca ptr, align 8
  %9 = alloca i32, align 4
  store ptr %0, ptr %4, align 8
  store ptr %1, ptr %5, align 8, !tbaa !4
  store ptr %2, ptr %6, align 8, !tbaa !4
  %10 = load ptr, ptr %5, align 8
  %11 = load ptr, ptr %6, align 8, !tbaa !4
  call void @llvm.lifetime.start.p0(i64 144, ptr %7) #34
  call void @_ZN6open3d8geometry9TetraMeshC2ERKS1_(ptr noundef nonnull align 8 dereferenceable(144) %7, ptr noundef nonnull align 8 dereferenceable(144) %10)
  %12 = invoke noundef nonnull align 8 dereferenceable(144) ptr @_ZN6open3d8geometry9TetraMeshpLERKS1_(ptr noundef nonnull align 8 dereferenceable(144) %7, ptr noundef nonnull align 8 dereferenceable(144) %11)
          to label %13 unwind label %15

13:                                               ; preds = %3
  invoke void @_ZN6open3d8geometry9TetraMeshC2ERKS1_(ptr noundef nonnull align 8 dereferenceable(144) %0, ptr noundef nonnull align 8 dereferenceable(144) %12)
          to label %14 unwind label %15

14:                                               ; preds = %13
  call void @_ZN6open3d8geometry9TetraMeshD2Ev(ptr noundef nonnull align 8 dereferenceable(144) %7) #34
  call void @llvm.lifetime.end.p0(i64 144, ptr %7) #34
  ret void

15:                                               ; preds = %13, %3
  %16 = landingpad { ptr, i32 }
          cleanup
  %17 = extractvalue { ptr, i32 } %16, 0
  store ptr %17, ptr %8, align 8
  %18 = extractvalue { ptr, i32 } %16, 1
  store i32 %18, ptr %9, align 4
  call void @_ZN6open3d8geometry9TetraMeshD2Ev(ptr noundef nonnull align 8 dereferenceable(144) %7) #34
  call void @llvm.lifetime.end.p0(i64 144, ptr %7) #34
  br label %19

19:                                               ; preds = %15
  %20 = load ptr, ptr %8, align 8
  %21 = load i32, ptr %9, align 4
  %22 = insertvalue { ptr, i32 } poison, ptr %20, 0
  %23 = insertvalue { ptr, i32 } %22, i32 %21, 1
  resume { ptr, i32 } %23
}