; Function Attrs: mustprogress ssp uwtable
define void @_ZNK6open3d8geometry9TetraMeshplERKS1_(ptr dead_on_unwind noalias writable sret(%"class.open3d::geometry::TetraMesh") align 8 %0, ptr noundef nonnull align 8 dereferenceable(144) %1, ptr noundef nonnull align 8 dereferenceable(144) %2) local_unnamed_addr #1 align 2 personality ptr @__gxx_personality_v0 {
  %4 = alloca %"class.open3d::geometry::TetraMesh", align 8
  call void @llvm.lifetime.start.p0(i64 144, ptr nonnull %4) #32
  call void @_ZN6open3d8geometry8MeshBaseC2ERKS1_(ptr noundef nonnull align 8 dereferenceable(144) %4, ptr noundef nonnull align 8 dereferenceable(144) %1)
  store ptr getelementptr inbounds nuw inrange(-16, 120) (i8, ptr @_ZTVN6open3d8geometry9TetraMeshE, i64 16), ptr %4, align 8, !tbaa !4
  %5 = getelementptr inbounds nuw i8, ptr %4, i64 120
  %6 = getelementptr inbounds nuw i8, ptr %1, i64 120
  invoke void @_ZNSt6vectorIN5Eigen6MatrixIiLi4ELi1ELi0ELi4ELi1EEENS0_17aligned_allocatorIS2_EEEC2ERKS5_(ptr noundef nonnull align 8 dereferenceable(24) %5, ptr noundef nonnull align 8 dereferenceable(24) %6)
          to label %_ZN6open3d8geometry9TetraMeshC2ERKS1_.exit unwind label %7

common.resume:                                    ; preds = %.body, %7
  %common.resume.op = phi { ptr, i32 } [ %8, %7 ], [ %eh.lpad-body, %.body ]
  resume { ptr, i32 } %common.resume.op

7:                                                ; preds = %3
  %8 = landingpad { ptr, i32 }
          cleanup
  call void @_ZN6open3d8geometry8MeshBaseD2Ev(ptr noundef nonnull align 8 dereferenceable(144) %4) #32
  br label %common.resume

_ZN6open3d8geometry9TetraMeshC2ERKS1_.exit:       ; preds = %3
  %9 = invoke noundef nonnull align 8 dereferenceable(144) ptr @_ZN6open3d8geometry9TetraMeshpLERKS1_(ptr noundef nonnull align 8 dereferenceable(144) %4, ptr noundef nonnull align 8 dereferenceable(144) %2)
          to label %10 unwind label %49

10:                                               ; preds = %_ZN6open3d8geometry9TetraMeshC2ERKS1_.exit
  invoke void @_ZN6open3d8geometry8MeshBaseC2ERKS1_(ptr noundef nonnull align 8 dereferenceable(144) %0, ptr noundef nonnull align 8 dereferenceable(144) %4)
          to label %.noexc unwind label %49

.noexc:                                           ; preds = %10
  store ptr getelementptr inbounds nuw inrange(-16, 120) (i8, ptr @_ZTVN6open3d8geometry9TetraMeshE, i64 16), ptr %0, align 8, !tbaa !4
  %11 = getelementptr inbounds nuw i8, ptr %0, i64 120
  invoke void @_ZNSt6vectorIN5Eigen6MatrixIiLi4ELi1ELi0ELi4ELi1EEENS0_17aligned_allocatorIS2_EEEC2ERKS5_(ptr noundef nonnull align 8 dereferenceable(24) %11, ptr noundef nonnull align 8 dereferenceable(24) %5)
          to label %_ZN6open3d8geometry9TetraMeshC2ERKS1_.exit3 unwind label %12

12:                                               ; preds = %.noexc
  %13 = landingpad { ptr, i32 }
          cleanup
  call void @_ZN6open3d8geometry8MeshBaseD2Ev(ptr noundef nonnull align 8 dereferenceable(144) %0) #32
  br label %.body

_ZN6open3d8geometry9TetraMeshC2ERKS1_.exit3:      ; preds = %.noexc
  store ptr getelementptr inbounds nuw inrange(-16, 120) (i8, ptr @_ZTVN6open3d8geometry9TetraMeshE, i64 16), ptr %4, align 8, !tbaa !4
  %14 = load ptr, ptr %5, align 8, !tbaa !7
  %.not.i.i.i.i = icmp eq ptr %14, null
  br i1 %.not.i.i.i.i, label %_ZNSt6vectorIN5Eigen6MatrixIiLi4ELi1ELi0ELi4ELi1EEENS0_17aligned_allocatorIS2_EEED2Ev.exit.i, label %15

15:                                               ; preds = %_ZN6open3d8geometry9TetraMeshC2ERKS1_.exit3
  call void @free(ptr noundef nonnull %14) #32
  br label %_ZNSt6vectorIN5Eigen6MatrixIiLi4ELi1ELi0ELi4ELi1EEENS0_17aligned_allocatorIS2_EEED2Ev.exit.i

_ZNSt6vectorIN5Eigen6MatrixIiLi4ELi1ELi0ELi4ELi1EEENS0_17aligned_allocatorIS2_EEED2Ev.exit.i: ; preds = %15, %_ZN6open3d8geometry9TetraMeshC2ERKS1_.exit3
  store ptr getelementptr inbounds nuw inrange(-16, 120) (i8, ptr @_ZTVN6open3d8geometry8MeshBaseE, i64 16), ptr %4, align 8, !tbaa !4
  %16 = getelementptr inbounds nuw i8, ptr %4, i64 96
  %17 = load ptr, ptr %16, align 8, !tbaa !12
  %.not.i.i.i.i.i = icmp eq ptr %17, null
  br i1 %.not.i.i.i.i.i, label %_ZNSt6vectorIN5Eigen6MatrixIdLi3ELi1ELi0ELi3ELi1EEESaIS2_EED2Ev.exit.i.i, label %18

18:                                               ; preds = %_ZNSt6vectorIN5Eigen6MatrixIiLi4ELi1ELi0ELi4ELi1EEENS0_17aligned_allocatorIS2_EEED2Ev.exit.i
  %19 = getelementptr inbounds nuw i8, ptr %4, i64 112
  %20 = load ptr, ptr %19, align 8, !tbaa !15
  %21 = ptrtoint ptr %20 to i64
  %22 = ptrtoint ptr %17 to i64
  %23 = sub i64 %21, %22
  call void @_ZdlPvm(ptr noundef nonnull %17, i64 noundef %23) #33
  br label %_ZNSt6vectorIN5Eigen6MatrixIdLi3ELi1ELi0ELi3ELi1EEESaIS2_EED2Ev.exit.i.i

_ZNSt6vectorIN5Eigen6MatrixIdLi3ELi1ELi0ELi3ELi1EEESaIS2_EED2Ev.exit.i.i: ; preds = %18, %_ZNSt6vectorIN5Eigen6MatrixIiLi4ELi1ELi0ELi4ELi1EEENS0_17aligned_allocatorIS2_EEED2Ev.exit.i
  %24 = getelementptr inbounds nuw i8, ptr %4, i64 72
  %25 = load ptr, ptr %24, align 8, !tbaa !12
  %.not.i.i.i1.i.i = icmp eq ptr %25, null
  br i1 %.not.i.i.i1.i.i, label %_ZNSt6vectorIN5Eigen6MatrixIdLi3ELi1ELi0ELi3ELi1EEESaIS2_EED2Ev.exit2.i.i, label %26

26:                                               ; preds = %_ZNSt6vectorIN5Eigen6MatrixIdLi3ELi1ELi0ELi3ELi1EEESaIS2_EED2Ev.exit.i.i
  %27 = getelementptr inbounds nuw i8, ptr %4, i64 88
  %28 = load ptr, ptr %27, align 8, !tbaa !15
  %29 = ptrtoint ptr %28 to i64
  %30 = ptrtoint ptr %25 to i64
  %31 = sub i64 %29, %30
  call void @_ZdlPvm(ptr noundef nonnull %25, i64 noundef %31) #33
  br label %_ZNSt6vectorIN5Eigen6MatrixIdLi3ELi1ELi0ELi3ELi1EEESaIS2_EED2Ev.exit2.i.i

_ZNSt6vectorIN5Eigen6MatrixIdLi3ELi1ELi0ELi3ELi1EEESaIS2_EED2Ev.exit2.i.i: ; preds = %26, %_ZNSt6vectorIN5Eigen6MatrixIdLi3ELi1ELi0ELi3ELi1EEESaIS2_EED2Ev.exit.i.i
  %32 = getelementptr inbounds nuw i8, ptr %4, i64 48
  %33 = load ptr, ptr %32, align 8, !tbaa !12
  %.not.i.i.i3.i.i = icmp eq ptr %33, null
  br i1 %.not.i.i.i3.i.i, label %_ZNSt6vectorIN5Eigen6MatrixIdLi3ELi1ELi0ELi3ELi1EEESaIS2_EED2Ev.exit4.i.i, label %34

34:                                               ; preds = %_ZNSt6vectorIN5Eigen6MatrixIdLi3ELi1ELi0ELi3ELi1EEESaIS2_EED2Ev.exit2.i.i
  %35 = getelementptr inbounds nuw i8, ptr %4, i64 64
  %36 = load ptr, ptr %35, align 8, !tbaa !15
  %37 = ptrtoint ptr %36 to i64
  %38 = ptrtoint ptr %33 to i64
  %39 = sub i64 %37, %38
  call void @_ZdlPvm(ptr noundef nonnull %33, i64 noundef %39) #33
  br label %_ZNSt6vectorIN5Eigen6MatrixIdLi3ELi1ELi0ELi3ELi1EEESaIS2_EED2Ev.exit4.i.i

_ZNSt6vectorIN5Eigen6MatrixIdLi3ELi1ELi0ELi3ELi1EEESaIS2_EED2Ev.exit4.i.i: ; preds = %34, %_ZNSt6vectorIN5Eigen6MatrixIdLi3ELi1ELi0ELi3ELi1EEESaIS2_EED2Ev.exit2.i.i
  store ptr getelementptr inbounds nuw inrange(-16, 32) (i8, ptr @_ZTVN6open3d8geometry8GeometryE, i64 16), ptr %4, align 8, !tbaa !4
  %40 = getelementptr inbounds nuw i8, ptr %4, i64 16
  %41 = load ptr, ptr %40, align 8, !tbaa !16
  %42 = getelementptr inbounds nuw i8, ptr %4, i64 32
  %43 = icmp eq ptr %41, %42
  br i1 %43, label %_ZNKSt7__cxx1112basic_stringIcSt11char_traitsIcESaIcEE11_M_is_localEv.exit.thread.i.i.i.i.i, label %_ZNKSt7__cxx1112basic_stringIcSt11char_traitsIcESaIcEE11_M_is_localEv.exit.i.i.i.i.i

_ZNKSt7__cxx1112basic_stringIcSt11char_traitsIcESaIcEE11_M_is_localEv.exit.thread.i.i.i.i.i: ; preds = %_ZNSt6vectorIN5Eigen6MatrixIdLi3ELi1ELi0ELi3ELi1EEESaIS2_EED2Ev.exit4.i.i
  %44 = getelementptr inbounds nuw i8, ptr %4, i64 24
  %45 = load i64, ptr %44, align 8, !tbaa !21
  %46 = icmp ult i64 %45, 16
  call void @llvm.assume(i1 %46)
  br label %_ZN6open3d8geometry9TetraMeshD2Ev.exit

_ZNKSt7__cxx1112basic_stringIcSt11char_traitsIcESaIcEE11_M_is_localEv.exit.i.i.i.i.i: ; preds = %_ZNSt6vectorIN5Eigen6MatrixIdLi3ELi1ELi0ELi3ELi1EEESaIS2_EED2Ev.exit4.i.i
  %47 = load i64, ptr %42, align 8, !tbaa !22
  %48 = add i64 %47, 1
  call void @_ZdlPvm(ptr noundef %41, i64 noundef %48) #33
  br label %_ZN6open3d8geometry9TetraMeshD2Ev.exit

_ZN6open3d8geometry9TetraMeshD2Ev.exit:           ; preds = %_ZNKSt7__cxx1112basic_stringIcSt11char_traitsIcESaIcEE11_M_is_localEv.exit.thread.i.i.i.i.i, %_ZNKSt7__cxx1112basic_stringIcSt11char_traitsIcESaIcEE11_M_is_localEv.exit.i.i.i.i.i
  call void @llvm.lifetime.end.p0(i64 144, ptr nonnull %4) #32
  ret void

49:                                               ; preds = %10, %_ZN6open3d8geometry9TetraMeshC2ERKS1_.exit
  %50 = landingpad { ptr, i32 }
          cleanup
  br label %.body

.body:                                            ; preds = %12, %49
  %eh.lpad-body = phi { ptr, i32 } [ %50, %49 ], [ %13, %12 ]
  call void @_ZN6open3d8geometry9TetraMeshD2Ev(ptr noundef nonnull align 8 dereferenceable(144) %4) #32
  call void @llvm.lifetime.end.p0(i64 144, ptr nonnull %4) #32
  br label %common.resume
}